; Function Attrs: mustprogress nofree norecurse nosync nounwind willreturn memory(argmem: readwrite) uwtable
define internal void @hwloc_calc_get_unique_obj_cb(ptr readnone captures(none) %0, ptr noundef captures(none) %1, ptr noundef %2) #22 {
  %4 = load ptr, ptr %1, align 8, !tbaa !33
  %.not = icmp eq ptr %4, null
  br i1 %.not, label %5, label %6

5:                                                ; preds = %3
  store ptr %2, ptr %1, align 8, !tbaa !33
  br label %6

6:                                                ; preds = %5, %3
  ret void
}